target datalayout = "e-m:e-p270:32:32-p271:32:32-p272:64:64-i64:64-i128:128-f80:128-n8:16:32:64-S128"
target triple = "x86_64-pc-linux-gnu"

%struct.curltime = type { i64, i32 }
%struct.dynbuf = type { ptr, i64, i64, i64 }
%struct.pingpong = type { i64, i8, ptr, i64, i64, %struct.curltime, i64, %struct.dynbuf, %struct.dynbuf, i64, i64, ptr, ptr }

; Function Attrs: nounwind uwtable
define hidden void @Curl_pp_init(ptr noundef %0) #0 {
  %2 = alloca ptr, align 8
  %3 = alloca %struct.curltime, align 8
  store ptr %0, ptr %2, align 8, !tbaa !8
  %4 = load ptr, ptr %2, align 8, !tbaa !8
  %5 = getelementptr inbounds nuw %struct.pingpong, ptr %4, i32 0, i32 0
  store i64 0, ptr %5, align 8, !tbaa !93
  %6 = load ptr, ptr %2, align 8, !tbaa !8
  %7 = getelementptr inbounds nuw %struct.pingpong, ptr %6, i32 0, i32 5
  call void @llvm.lifetime.start.p0(i64 16, ptr %3) #7
  %8 = call { i64, i32 } @Curl_now()
  %9 = getelementptr inbounds nuw { i64, i32 }, ptr %3, i32 0, i32 0
  %10 = extractvalue { i64, i32 } %8, 0
  store i64 %10, ptr %9, align 8
  %11 = getelementptr inbounds nuw { i64, i32 }, ptr %3, i32 0, i32 1
  %12 = extractvalue { i64, i32 } %8, 1
  store i32 %12, ptr %11, align 8
  call void @llvm.memcpy.p0.p0.i64(ptr align 8 %7, ptr align 8 %3, i64 16, i1 false), !tbaa.struct !94
  call void @llvm.lifetime.end.p0(i64 16, ptr %3) #7
  %13 = load ptr, ptr %2, align 8, !tbaa !8
  %14 = getelementptr inbounds nuw %struct.pingpong, ptr %13, i32 0, i32 1
  store i8 1, ptr %14, align 8, !tbaa !95
  %15 = load ptr, ptr %2, align 8, !tbaa !8
  %16 = getelementptr inbounds nuw %struct.pingpong, ptr %15, i32 0, i32 7
  call void @Curl_dyn_init(ptr noundef %16, i64 noundef 65536)
  %17 = load ptr, ptr %2, align 8, !tbaa !8
  %18 = getelementptr inbounds nuw %struct.pingpong, ptr %17, i32 0, i32 8
  call void @Curl_dyn_init(ptr noundef %18, i64 noundef 65536)
  ret void
}